; ModuleID = 'source-C-CXX/52/156.c'
source_filename = "source-C-CXX/52/156.c"
target datalayout = "e-m:e-p270:32:32-p271:32:32-p272:64:64-i64:64-f80:128-n8:16:32:64-S128"
target triple = "x86_64-pc-linux-gnu"

@.str = private unnamed_addr constant [3 x i8] c"%d\00", align 1
@.str.1 = private unnamed_addr constant [4 x i8] c"%d \00", align 1
@.str.2 = private unnamed_addr constant [4 x i8] c",%d\00", align 1

; Function Attrs: nofree nounwind sspstrong uwtable
define dso_local void @main() local_unnamed_addr #0 {
  %1 = alloca i32, align 4
  %2 = alloca [300 x i32], align 16
  %3 = bitcast i32* %1 to i8*
  call void @llvm.lifetime.start.p0i8(i64 4, i8* nonnull %3) #3
  %4 = bitcast [300 x i32]* %2 to i8*
  call void @llvm.lifetime.start.p0i8(i64 1200, i8* nonnull %4) #3
  %5 = call i32 (i8*, ...) @__isoc99_scanf(i8* getelementptr inbounds ([3 x i8], [3 x i8]* @.str, i64 0, i64 0), i32* nonnull %1)
  %6 = load i32, i32* %1, align 4, !tbaa !5
  %7 = icmp sgt i32 %6, 1
  br i1 %7, label %8, label %16

8:                                                ; preds = %0, %8
  %9 = phi i64 [ %12, %8 ], [ 1, %0 ]
  %10 = getelementptr inbounds [300 x i32], [300 x i32]* %2, i64 0, i64 %9
  %11 = call i32 (i8*, ...) @__isoc99_scanf(i8* getelementptr inbounds ([4 x i8], [4 x i8]* @.str.1, i64 0, i64 0), i32* nonnull %10)
  %12 = add nuw nsw i64 %9, 1
  %13 = load i32, i32* %1, align 4, !tbaa !5
  %14 = sext i32 %13 to i64
  %15 = icmp slt i64 %12, %14
  br i1 %15, label %8, label %16, !llvm.loop !9

16:                                               ; preds = %8, %0
  %17 = phi i32 [ %6, %0 ], [ %13, %8 ]
  %18 = sext i32 %17 to i64
  %19 = getelementptr inbounds [300 x i32], [300 x i32]* %2, i64 0, i64 %18
  %20 = call i32 (i8*, ...) @__isoc99_scanf(i8* getelementptr inbounds ([3 x i8], [3 x i8]* @.str, i64 0, i64 0), i32* nonnull %19)
  %21 = getelementptr inbounds [300 x i32], [300 x i32]* %2, i64 0, i64 1
  %22 = load i32, i32* %21, align 4, !tbaa !5
  %23 = call i32 (i8*, ...) @printf(i8* nonnull dereferenceable(1) getelementptr inbounds ([3 x i8], [3 x i8]* @.str, i64 0, i64 0), i32 %22)
  %24 = load i32, i32* %1, align 4, !tbaa !5
  %25 = icmp slt i32 %24, 2
  br i1 %25, label %91, label %26

26:                                               ; preds = %16, %85
  %27 = phi i64 [ %90, %85 ], [ 0, %16 ]
  %28 = phi i32 [ %86, %85 ], [ %24, %16 ]
  %29 = phi i64 [ %87, %85 ], [ 2, %16 ]
  %30 = add i64 %27, 1
  %31 = getelementptr inbounds [300 x i32], [300 x i32]* %2, i64 0, i64 %29
  %32 = load i32, i32* %31, align 4, !tbaa !5
  %33 = and i64 %30, 3
  %34 = icmp ult i64 %27, 3
  br i1 %34, label %63, label %35

35:                                               ; preds = %26
  %36 = and i64 %30, -4
  br label %37

37:                                               ; preds = %37, %35
  %38 = phi i64 [ 1, %35 ], [ %60, %37 ]
  %39 = phi i32 [ 1, %35 ], [ %59, %37 ]
  %40 = phi i64 [ %36, %35 ], [ %61, %37 ]
  %41 = getelementptr inbounds [300 x i32], [300 x i32]* %2, i64 0, i64 %38
  %42 = load i32, i32* %41, align 4, !tbaa !5
  %43 = icmp eq i32 %42, %32
  %44 = add nuw nsw i64 %38, 1
  %45 = getelementptr inbounds [300 x i32], [300 x i32]* %2, i64 0, i64 %44
  %46 = load i32, i32* %45, align 4, !tbaa !5
  %47 = icmp eq i32 %46, %32
  %48 = add nuw nsw i64 %38, 2
  %49 = getelementptr inbounds [300 x i32], [300 x i32]* %2, i64 0, i64 %48
  %50 = load i32, i32* %49, align 4, !tbaa !5
  %51 = icmp eq i32 %50, %32
  %52 = add nuw nsw i64 %38, 3
  %53 = getelementptr inbounds [300 x i32], [300 x i32]* %2, i64 0, i64 %52
  %54 = load i32, i32* %53, align 4, !tbaa !5
  %55 = icmp eq i32 %54, %32
  %56 = select i1 %55, i1 true, i1 %51
  %57 = select i1 %56, i1 true, i1 %47
  %58 = select i1 %57, i1 true, i1 %43
  %59 = select i1 %58, i32 0, i32 %39
  %60 = add nuw nsw i64 %38, 4
  %61 = add i64 %40, -4
  %62 = icmp eq i64 %61, 0
  br i1 %62, label %63, label %37, !llvm.loop !11

63:                                               ; preds = %37, %26
  %64 = phi i32 [ undef, %26 ], [ %59, %37 ]
  %65 = phi i64 [ 1, %26 ], [ %60, %37 ]
  %66 = phi i32 [ 1, %26 ], [ %59, %37 ]
  %67 = icmp eq i64 %33, 0
  br i1 %67, label %79, label %68

68:                                               ; preds = %63, %68
  %69 = phi i64 [ %76, %68 ], [ %65, %63 ]
  %70 = phi i32 [ %75, %68 ], [ %66, %63 ]
  %71 = phi i64 [ %77, %68 ], [ %33, %63 ]
  %72 = getelementptr inbounds [300 x i32], [300 x i32]* %2, i64 0, i64 %69
  %73 = load i32, i32* %72, align 4, !tbaa !5
  %74 = icmp eq i32 %73, %32
  %75 = select i1 %74, i32 0, i32 %70
  %76 = add nuw nsw i64 %69, 1
  %77 = add i64 %71, -1
  %78 = icmp eq i64 %77, 0
  br i1 %78, label %79, label %68, !llvm.loop !12

79:                                               ; preds = %68, %63
  %80 = phi i32 [ %64, %63 ], [ %75, %68 ]
  %81 = icmp eq i32 %80, 1
  br i1 %81, label %82, label %85

82:                                               ; preds = %79
  %83 = call i32 (i8*, ...) @printf(i8* nonnull dereferenceable(1) getelementptr inbounds ([4 x i8], [4 x i8]* @.str.2, i64 0, i64 0), i32 %32)
  %84 = load i32, i32* %1, align 4, !tbaa !5
  br label %85

85:                                               ; preds = %82, %79
  %86 = phi i32 [ %84, %82 ], [ %28, %79 ]
  %87 = add nuw nsw i64 %29, 1
  %88 = sext i32 %86 to i64
  %89 = icmp slt i64 %29, %88
  %90 = add i64 %27, 1
  br i1 %89, label %26, label %91, !llvm.loop !14

91:                                               ; preds = %85, %16
  call void @llvm.lifetime.end.p0i8(i64 1200, i8* nonnull %4) #3
  call void @llvm.lifetime.end.p0i8(i64 4, i8* nonnull %3) #3
  ret void
}

; Function Attrs: argmemonly mustprogress nofree nosync nounwind willreturn
declare void @llvm.lifetime.start.p0i8(i64 immarg, i8* nocapture) #1

; Function Attrs: nofree nounwind
declare noundef i32 @__isoc99_scanf(i8* nocapture noundef readonly, ...) local_unnamed_addr #2

; Function Attrs: nofree nounwind
declare noundef i32 @printf(i8* nocapture noundef readonly, ...) local_unnamed_addr #2

; Function Attrs: argmemonly mustprogress nofree nosync nounwind willreturn
declare void @llvm.lifetime.end.p0i8(i64 immarg, i8* nocapture) #1


!llvm.module.flags = !{!0, !1, !2, !3}
!llvm.ident = !{!4}

!0 = !{i32 1, !"wchar_size", i32 4}
!1 = !{i32 7, !"PIC Level", i32 2}
!2 = !{i32 7, !"PIE Level", i32 2}
!3 = !{i32 7, !"uwtable", i32 1}
!4 = !{!"clang version 13.0.0"}
!5 = !{!6, !6, i64 0}
!6 = !{!"int", !7, i64 0}
!7 = !{!"omnipotent char", !8, i64 0}
!8 = !{!"Simple C/C++ TBAA"}
!9 = distinct !{!9, !10}
!10 = !{!"llvm.loop.mustprogress"}
!11 = distinct !{!11, !10}
!12 = distinct !{!12, !13}
!13 = !{!"llvm.loop.unroll.disable"}
!14 = distinct !{!14, !10}
